target datalayout = "e-m:e-p270:32:32-p271:32:32-p272:64:64-i64:64-i128:128-f80:128-n8:16:32:64-S128"
target triple = "x86_64-pc-linux-gnu"

%"struct.std::__detail::_Hash_node_base" = type { ptr }
%"struct.std::__detail::_Prime_rehash_policy" = type { float, i64 }
%"class.std::__cxx11::basic_string" = type { %"struct.std::__cxx11::basic_string<char>::_Alloc_hider", i64, %union.anon }
%"struct.std::__cxx11::basic_string<char>::_Alloc_hider" = type { ptr }
%union.anon = type { i64, [8 x i8] }
%"class.std::__shared_count" = type { ptr }
%"class.std::shared_ptr.30" = type { %"class.std::__shared_ptr.31" }
%"class.std::__shared_ptr.31" = type { ptr, %"class.std::__shared_count" }
%"class.std::unique_ptr.22" = type { %"struct.std::__uniq_ptr_data.23" }
%"struct.std::__uniq_ptr_data.23" = type { %"class.std::__uniq_ptr_impl.24" }
%"class.std::__uniq_ptr_impl.24" = type { %"class.std::tuple.25" }
%"class.std::tuple.25" = type { %"struct.std::_Tuple_impl.26" }
%"struct.std::_Tuple_impl.26" = type { %"struct.std::_Head_base.29" }
%"struct.std::_Head_base.29" = type { ptr }
%"class.std::vector.33" = type { %"struct.std::_Vector_base.34" }
%"struct.std::_Vector_base.34" = type { %"struct.std::_Vector_base<cv::GCompileArg, std::allocator<cv::GCompileArg>>::_Vector_impl" }
%"struct.std::_Vector_base<cv::GCompileArg, std::allocator<cv::GCompileArg>>::_Vector_impl" = type { %"struct.std::_Vector_base<cv::GCompileArg, std::allocator<cv::GCompileArg>>::_Vector_impl_data" }
%"struct.std::_Vector_base<cv::GCompileArg, std::allocator<cv::GCompileArg>>::_Vector_impl_data" = type { ptr, ptr, ptr }
%class.PipelineBuilder = type { %"class.std::unique_ptr.76" }
%"class.std::unique_ptr.76" = type { %"struct.std::__uniq_ptr_data.77" }
%"struct.std::__uniq_ptr_data.77" = type { %"class.std::__uniq_ptr_impl.78" }
%"class.std::__uniq_ptr_impl.78" = type { %"class.std::tuple.79" }
%"class.std::tuple.79" = type { %"struct.std::_Tuple_impl.80" }
%"struct.std::_Tuple_impl.80" = type { %"struct.std::_Head_base.83" }
%"struct.std::_Head_base.83" = type { ptr }
%"struct.PipelineBuilder::State" = type { %"class.std::unordered_map.84", %"class.std::vector.98", %"struct.cv::gapi::GNetPackage", %"class.cv::GKernelPackage", %"class.std::vector.33", %"class.std::shared_ptr.30", i32, %"class.std::__cxx11::basic_string", %"class.std::unique_ptr.22" }
%"class.std::unordered_map.84" = type { %"class.std::_Hashtable.85" }
%"class.std::_Hashtable.85" = type { ptr, i64, %"struct.std::__detail::_Hash_node_base", i64, %"struct.std::__detail::_Prime_rehash_policy", ptr }
%"class.std::vector.98" = type { %"struct.std::_Vector_base.99" }
%"struct.std::_Vector_base.99" = type { %"struct.std::_Vector_base<std::shared_ptr<Node>, std::allocator<std::shared_ptr<Node>>>::_Vector_impl" }
%"struct.std::_Vector_base<std::shared_ptr<Node>, std::allocator<std::shared_ptr<Node>>>::_Vector_impl" = type { %"struct.std::_Vector_base<std::shared_ptr<Node>, std::allocator<std::shared_ptr<Node>>>::_Vector_impl_data" }
%"struct.std::_Vector_base<std::shared_ptr<Node>, std::allocator<std::shared_ptr<Node>>>::_Vector_impl_data" = type { ptr, ptr, ptr }
%"struct.cv::gapi::GNetPackage" = type { %"class.std::vector.103" }
%"class.std::vector.103" = type { %"struct.std::_Vector_base.104" }
%"struct.std::_Vector_base.104" = type { %"struct.std::_Vector_base<cv::gapi::GNetParam, std::allocator<cv::gapi::GNetParam>>::_Vector_impl" }
%"struct.std::_Vector_base<cv::gapi::GNetParam, std::allocator<cv::gapi::GNetParam>>::_Vector_impl" = type { %"struct.std::_Vector_base<cv::gapi::GNetParam, std::allocator<cv::gapi::GNetParam>>::_Vector_impl_data" }
%"struct.std::_Vector_base<cv::gapi::GNetParam, std::allocator<cv::gapi::GNetParam>>::_Vector_impl_data" = type { ptr, ptr, ptr }
%"class.cv::GKernelPackage" = type { %"class.std::unordered_map.108", %"class.std::vector.122" }
%"class.std::unordered_map.108" = type { %"class.std::_Hashtable.109" }
%"class.std::_Hashtable.109" = type { ptr, i64, %"struct.std::__detail::_Hash_node_base", i64, %"struct.std::__detail::_Prime_rehash_policy", ptr }
%"class.std::vector.122" = type { %"struct.std::_Vector_base.123" }
%"struct.std::_Vector_base.123" = type { %"struct.std::_Vector_base<cv::GTransform, std::allocator<cv::GTransform>>::_Vector_impl" }
%"struct.std::_Vector_base<cv::GTransform, std::allocator<cv::GTransform>>::_Vector_impl" = type { %"struct.std::_Vector_base<cv::GTransform, std::allocator<cv::GTransform>>::_Vector_impl_data" }
%"struct.std::_Vector_base<cv::GTransform, std::allocator<cv::GTransform>>::_Vector_impl_data" = type { ptr, ptr, ptr }
%"struct.cv::gapi::streaming::queue_capacity" = type { i64 }

; Function Attrs: mustprogress nounwind uwtable
define linkonce_odr hidden noundef nonnull align 8 dereferenceable(8) ptr @_ZNSt10_Head_baseILm0EPN15PipelineBuilder5StateELb0EE7_M_headERKS3_(ptr noundef nonnull align 8 dereferenceable(8) %0) #6 comdat align 2 {
  %2 = alloca ptr, align 8
  store ptr %0, ptr %2, align 8, !tbaa !1531
  %3 = load ptr, ptr %2, align 8, !tbaa !1531
  %4 = getelementptr inbounds nuw %"struct.std::_Head_base.83", ptr %3, i32 0, i32 0
  ret ptr %4
}

; Function Attrs: mustprogress nounwind uwtable
define linkonce_odr hidden noundef nonnull align 8 dereferenceable(8) ptr @_ZNSt11_Tuple_implILm0EJPN15PipelineBuilder5StateESt14default_deleteIS1_EEE7_M_headERKS5_(ptr noundef nonnull align 8 dereferenceable(8) %0) #6 comdat align 2 {
  %2 = alloca ptr, align 8
  store ptr %0, ptr %2, align 8, !tbaa !1529
  %3 = load ptr, ptr %2, align 8, !tbaa !1529
  %4 = call noundef nonnull align 8 dereferenceable(8) ptr @_ZNSt10_Head_baseILm0EPN15PipelineBuilder5StateELb0EE7_M_headERKS3_(ptr noundef nonnull align 8 dereferenceable(8) %3) #3
  ret ptr %4
}

; Function Attrs: mustprogress nounwind uwtable
define linkonce_odr hidden noundef nonnull align 8 dereferenceable(8) ptr @_ZSt12__get_helperILm0EPN15PipelineBuilder5StateEJSt14default_deleteIS1_EEERKT0_RKSt11_Tuple_implIXT_EJS5_DpT1_EE(ptr noundef nonnull align 8 dereferenceable(8) %0) #6 comdat {
  %2 = alloca ptr, align 8
  store ptr %0, ptr %2, align 8, !tbaa !1529
  %3 = load ptr, ptr %2, align 8, !tbaa !1529
  %4 = call noundef nonnull align 8 dereferenceable(8) ptr @_ZNSt11_Tuple_implILm0EJPN15PipelineBuilder5StateESt14default_deleteIS1_EEE7_M_headERKS5_(ptr noundef nonnull align 8 dereferenceable(8) %3) #3
  ret ptr %4
}

; Function Attrs: mustprogress nounwind uwtable
define linkonce_odr hidden noundef nonnull align 8 dereferenceable(8) ptr @_ZSt3getILm0EJPN15PipelineBuilder5StateESt14default_deleteIS1_EEERKNSt13tuple_elementIXT_ESt5tupleIJDpT0_EEE4typeERKS9_(ptr noundef nonnull align 8 dereferenceable(8) %0) #6 comdat {
  %2 = alloca ptr, align 8
  store ptr %0, ptr %2, align 8, !tbaa !1527
  %3 = load ptr, ptr %2, align 8, !tbaa !1527
  %4 = call noundef nonnull align 8 dereferenceable(8) ptr @_ZSt12__get_helperILm0EPN15PipelineBuilder5StateEJSt14default_deleteIS1_EEERKT0_RKSt11_Tuple_implIXT_EJS5_DpT1_EE(ptr noundef nonnull align 8 dereferenceable(8) %3) #3
  ret ptr %4
}

; Function Attrs: mustprogress nounwind uwtable
define linkonce_odr hidden noundef ptr @_ZNKSt15__uniq_ptr_implIN15PipelineBuilder5StateESt14default_deleteIS1_EE6_M_ptrEv(ptr noundef nonnull align 8 dereferenceable(8) %0) #6 comdat align 2 {
  %2 = alloca ptr, align 8
  store ptr %0, ptr %2, align 8, !tbaa !1523
  %3 = load ptr, ptr %2, align 8
  %4 = getelementptr inbounds nuw %"class.std::__uniq_ptr_impl.78", ptr %3, i32 0, i32 0
  %5 = call noundef nonnull align 8 dereferenceable(8) ptr @_ZSt3getILm0EJPN15PipelineBuilder5StateESt14default_deleteIS1_EEERKNSt13tuple_elementIXT_ESt5tupleIJDpT0_EEE4typeERKS9_(ptr noundef nonnull align 8 dereferenceable(8) %4) #3
  %6 = load ptr, ptr %5, align 8, !tbaa !292
  ret ptr %6
}

; Function Attrs: mustprogress nounwind uwtable
define linkonce_odr hidden noundef ptr @_ZNKSt10unique_ptrIN15PipelineBuilder5StateESt14default_deleteIS1_EE3getEv(ptr noundef nonnull align 8 dereferenceable(8) %0) #6 comdat align 2 {
  %2 = alloca ptr, align 8
  store ptr %0, ptr %2, align 8, !tbaa !318
  %3 = load ptr, ptr %2, align 8
  %4 = getelementptr inbounds nuw %"class.std::unique_ptr.76", ptr %3, i32 0, i32 0
  %5 = call noundef ptr @_ZNKSt15__uniq_ptr_implIN15PipelineBuilder5StateESt14default_deleteIS1_EE6_M_ptrEv(ptr noundef nonnull align 8 dereferenceable(8) %4) #3
  ret ptr %5
}

; Function Attrs: mustprogress nounwind uwtable
define linkonce_odr hidden void @_ZN2cv4gapi9streaming14queue_capacityC2Em(ptr noundef nonnull align 8 dereferenceable(8) %0, i64 noundef %1) unnamed_addr #6 comdat align 2 {
  %3 = alloca ptr, align 8
  %4 = alloca i64, align 8
  store ptr %0, ptr %3, align 8, !tbaa !453
  store i64 %1, ptr %4, align 8, !tbaa !34
  %5 = load ptr, ptr %3, align 8
  %6 = getelementptr inbounds nuw %"struct.cv::gapi::streaming::queue_capacity", ptr %5, i32 0, i32 0
  %7 = load i64, ptr %4, align 8, !tbaa !34
  store i64 %7, ptr %6, align 8, !tbaa !455
  ret void
}

; Function Attrs: mustprogress nounwind uwtable
define linkonce_odr hidden noundef ptr @_ZNKSt10unique_ptrIN15PipelineBuilder5StateESt14default_deleteIS1_EEptEv(ptr noundef nonnull align 8 dereferenceable(8) %0) #6 comdat align 2 {
  %2 = alloca ptr, align 8
  store ptr %0, ptr %2, align 8, !tbaa !318
  %3 = load ptr, ptr %2, align 8
  %4 = call noundef ptr @_ZNKSt10unique_ptrIN15PipelineBuilder5StateESt14default_deleteIS1_EE3getEv(ptr noundef nonnull align 8 dereferenceable(8) %3) #3
  ret ptr %4
}

; Function Attrs: mustprogress uwtable
define hidden void @_ZN15PipelineBuilder16setQueueCapacityEm(ptr noundef nonnull align 8 dereferenceable(8) %0, i64 noundef %1) #4 align 2 {
  %3 = alloca ptr, align 8
  %4 = alloca i64, align 8
  %5 = alloca %"struct.cv::gapi::streaming::queue_capacity", align 8
  store ptr %0, ptr %3, align 8, !tbaa !290
  store i64 %1, ptr %4, align 8, !tbaa !34
  %6 = load ptr, ptr %3, align 8
  %7 = getelementptr inbounds nuw %class.PipelineBuilder, ptr %6, i32 0, i32 0
  %8 = call noundef ptr @_ZNKSt10unique_ptrIN15PipelineBuilder5StateESt14default_deleteIS1_EEptEv(ptr noundef nonnull align 8 dereferenceable(8) %7) #3
  %9 = getelementptr inbounds nuw %"struct.PipelineBuilder::State", ptr %8, i32 0, i32 4
  call void @llvm.lifetime.start.p0(i64 8, ptr %5) #3
  %10 = load i64, ptr %4, align 8, !tbaa !34
  call void @_ZN2cv4gapi9streaming14queue_capacityC2Em(ptr noundef nonnull align 8 dereferenceable(8) %5, i64 noundef %10)
  call void @_ZNSt6vectorIN2cv11GCompileArgESaIS1_EE12emplace_backIJNS0_4gapi9streaming14queue_capacityEEEEvDpOT_(ptr noundef nonnull align 8 dereferenceable(24) %9, ptr noundef nonnull align 8 dereferenceable(8) %5)
  call void @llvm.lifetime.end.p0(i64 8, ptr %5) #3
  ret void
}