; Function Attrs: mustprogress uwtable
define hidden void @_ZN15PipelineBuilder16setQueueCapacityEm(ptr noundef nonnull readonly align 8 captures(none) dereferenceable(8) %0, i64 noundef %1) local_unnamed_addr #3 align 2 {
  %3 = alloca %"struct.cv::gapi::streaming::queue_capacity", align 8
  %4 = load ptr, ptr %0, align 8, !tbaa !347
  %5 = getelementptr inbounds nuw i8, ptr %4, i64 184
  call void @llvm.lifetime.start.p0(i64 8, ptr nonnull %3) #37
  store i64 %1, ptr %3, align 8, !tbaa !457
  call void @_ZNSt6vectorIN2cv11GCompileArgESaIS1_EE12emplace_backIJNS0_4gapi9streaming14queue_capacityEEEEvDpOT_(ptr noundef nonnull align 8 dereferenceable(24) %5, ptr noundef nonnull align 8 dereferenceable(8) %3)
  call void @llvm.lifetime.end.p0(i64 8, ptr nonnull %3) #37
  ret void
}